; Function Attrs: mustprogress nofree nounwind willreturn memory(write, argmem: none, inaccessiblemem: readwrite) uwtable
define internal fastcc noalias noundef ptr @Vec_IntStart() unnamed_addr #18 {
  %1 = tail call noalias dereferenceable_or_null(16) ptr @malloc(i64 noundef 16) #28
  %2 = getelementptr inbounds nuw i8, ptr %1, i64 4
  store i32 16, ptr %1, align 8
  %3 = tail call noalias dereferenceable_or_null(64) ptr @malloc(i64 noundef 64) #28
  %4 = getelementptr inbounds nuw i8, ptr %1, i64 8
  store ptr %3, ptr %4, align 8
  store i32 1, ptr %2, align 4
  %.not = icmp eq ptr %3, null
  br i1 %.not, label %6, label %5

5:                                                ; preds = %0
  store i32 0, ptr %3, align 4
  br label %6

6:                                                ; preds = %5, %0
  ret ptr %1
}